target datalayout = "e-m:e-p270:32:32-p271:32:32-p272:64:64-i64:64-i128:128-f80:128-n8:16:32:64-S128"
target triple = "x86_64-pc-linux-gnu"

%struct.__va_list_tag = type { i32, i32, ptr, ptr }

@report_file = internal global ptr null, align 8
@report_file_level = internal global i32 48, align 4
@log_callback_report.print_prefix = internal global i32 1, align 4

; Function Attrs: nounwind uwtable
define internal void @log_callback_report(ptr noundef %0, i32 noundef %1, ptr noundef %2, ptr noundef %3) #0 {
  %5 = alloca ptr, align 8
  %6 = alloca i32, align 4
  %7 = alloca ptr, align 8
  %8 = alloca ptr, align 8
  %9 = alloca [1 x %struct.__va_list_tag], align 16
  %10 = alloca [1024 x i8], align 16
  store ptr %0, ptr %5, align 8, !tbaa !4
  store i32 %1, ptr %6, align 4, !tbaa !10
  store ptr %2, ptr %7, align 8, !tbaa !8
  store ptr %3, ptr %8, align 8, !tbaa !146
  call void @llvm.lifetime.start.p0(i64 24, ptr %9) #11
  call void @llvm.lifetime.start.p0(i64 1024, ptr %10) #11
  %11 = getelementptr inbounds [1 x %struct.__va_list_tag], ptr %9, i64 0, i64 0
  %12 = load ptr, ptr %8, align 8, !tbaa !146
  call void @llvm.va_copy.p0(ptr %11, ptr %12)
  %13 = load ptr, ptr %5, align 8, !tbaa !4
  %14 = load i32, ptr %6, align 4, !tbaa !10
  %15 = load ptr, ptr %7, align 8, !tbaa !8
  %16 = load ptr, ptr %8, align 8, !tbaa !146
  call void @av_log_default_callback(ptr noundef %13, i32 noundef %14, ptr noundef %15, ptr noundef %16)
  %17 = load ptr, ptr %5, align 8, !tbaa !4
  %18 = load i32, ptr %6, align 4, !tbaa !10
  %19 = load ptr, ptr %7, align 8, !tbaa !8
  %20 = getelementptr inbounds [1 x %struct.__va_list_tag], ptr %9, i64 0, i64 0
  %21 = getelementptr inbounds [1024 x i8], ptr %10, i64 0, i64 0
  call void @av_log_format_line(ptr noundef %17, i32 noundef %18, ptr noundef %19, ptr noundef %20, ptr noundef %21, i32 noundef 1024, ptr noundef @log_callback_report.print_prefix)
  %22 = getelementptr inbounds [1 x %struct.__va_list_tag], ptr %9, i64 0, i64 0
  call void @llvm.va_end.p0(ptr %22)
  %23 = load i32, ptr @report_file_level, align 4, !tbaa !10
  %24 = load i32, ptr %6, align 4, !tbaa !10
  %25 = icmp sge i32 %23, %24
  br i1 %25, label %26, label %32

26:                                               ; preds = %4
  %27 = getelementptr inbounds [1024 x i8], ptr %10, i64 0, i64 0
  %28 = load ptr, ptr @report_file, align 8, !tbaa !126
  %29 = call i32 @fputs(ptr noundef %27, ptr noundef %28)
  %30 = load ptr, ptr @report_file, align 8, !tbaa !126
  %31 = call i32 @fflush(ptr noundef %30)
  br label %32

32:                                               ; preds = %26, %4
  call void @llvm.lifetime.end.p0(i64 1024, ptr %10) #11
  call void @llvm.lifetime.end.p0(i64 24, ptr %9) #11
  ret void
}