; Function Attrs: nounwind uwtable
define internal void @log_callback_report(ptr noundef %0, i32 noundef %1, ptr noundef %2, ptr noundef %3) #2 {
  %5 = alloca [1 x %struct.__va_list_tag], align 16
  %6 = alloca [1024 x i8], align 16
  call void @llvm.lifetime.start.p0(i64 24, ptr nonnull %5) #17
  call void @llvm.lifetime.start.p0(i64 1024, ptr nonnull %6) #17
  call void @llvm.va_copy.p0(ptr nonnull %5, ptr %3)
  call void @av_log_default_callback(ptr noundef %0, i32 noundef %1, ptr noundef %2, ptr noundef %3) #17
  call void @av_log_format_line(ptr noundef %0, i32 noundef %1, ptr noundef %2, ptr noundef nonnull %5, ptr noundef nonnull %6, i32 noundef 1024, ptr noundef nonnull @log_callback_report.print_prefix) #17
  call void @llvm.va_end.p0(ptr nonnull %5)
  %7 = load i32, ptr @report_file_level, align 4, !tbaa !4
  %.not = icmp slt i32 %7, %1
  br i1 %.not, label %13, label %8

8:                                                ; preds = %4
  %9 = load ptr, ptr @report_file, align 8, !tbaa !107
  %10 = call i32 @fputs(ptr noundef nonnull %6, ptr noundef %9)
  %11 = load ptr, ptr @report_file, align 8, !tbaa !107
  %12 = call i32 @fflush(ptr noundef %11)
  br label %13

13:                                               ; preds = %8, %4
  call void @llvm.lifetime.end.p0(i64 1024, ptr nonnull %6) #17
  call void @llvm.lifetime.end.p0(i64 24, ptr nonnull %5) #17
  ret void
}